target datalayout = "e-m:e-p270:32:32-p271:32:32-p272:64:64-i64:64-i128:128-f80:128-n8:16:32:64-S128"
target triple = "x86_64-pc-linux-gnu"

%"struct.std::_Rb_tree_iterator" = type { ptr }
%"class.base::StatisticsRecorder::HistogramIterator" = type <{ %"struct.std::_Rb_tree_iterator", i8, [7 x i8] }>

; Function Attrs: mustprogress nounwind uwtable
define void @_ZN4base18StatisticsRecorder17HistogramIteratorC2ERKS1_(ptr noundef nonnull align 8 dereferenceable(9) %0, ptr noundef nonnull align 8 dereferenceable(9) %1) unnamed_addr #2 align 2 {
  %3 = alloca ptr, align 8
  %4 = alloca ptr, align 8
  store ptr %0, ptr %3, align 8, !tbaa !3
  store ptr %1, ptr %4, align 8, !tbaa !3
  %5 = load ptr, ptr %3, align 8
  %6 = getelementptr inbounds nuw %"class.base::StatisticsRecorder::HistogramIterator", ptr %5, i32 0, i32 0
  %7 = load ptr, ptr %4, align 8, !tbaa !3
  %8 = getelementptr inbounds nuw %"class.base::StatisticsRecorder::HistogramIterator", ptr %7, i32 0, i32 0
  call void @llvm.memcpy.p0.p0.i64(ptr align 8 %6, ptr align 8 %8, i64 8, i1 false), !tbaa.struct !12
  %9 = getelementptr inbounds nuw %"class.base::StatisticsRecorder::HistogramIterator", ptr %5, i32 0, i32 1
  %10 = load ptr, ptr %4, align 8, !tbaa !3
  %11 = getelementptr inbounds nuw %"class.base::StatisticsRecorder::HistogramIterator", ptr %10, i32 0, i32 1
  %12 = load i8, ptr %11, align 8, !tbaa !17, !range !15, !noundef !16
  %13 = trunc i8 %12 to i1
  %14 = zext i1 %13 to i8
  store i8 %14, ptr %9, align 8, !tbaa !17
  ret void
}