; Function Attrs: mustprogress nofree norecurse nosync nounwind willreturn memory(argmem: readwrite) uwtable
define void @_ZN4base18StatisticsRecorder17HistogramIteratorC2ERKS1_(ptr noundef nonnull writeonly align 8 captures(none) dereferenceable(9) initializes((0, 9)) %0, ptr noundef nonnull readonly align 8 captures(none) dereferenceable(9) %1) unnamed_addr #3 align 2 {
  %3 = load i64, ptr %1, align 8, !tbaa !3
  store i64 %3, ptr %0, align 8, !tbaa !3
  %4 = getelementptr inbounds nuw i8, ptr %0, i64 8
  %5 = getelementptr inbounds nuw i8, ptr %1, i64 8
  %6 = load i8, ptr %5, align 8, !tbaa !8, !range !21, !noundef !25
  store i8 %6, ptr %4, align 8, !tbaa !8
  ret void
}